; Function Attrs: mustprogress uwtable
define internal fastcc noundef zeroext i1 @"_ZN9__gnu_cxx5__ops12_Iter_negateIZN4cvc58internal6theory4bags9BagsUtils20areChildrenConstantsENS3_12NodeTemplateILb0EEEE3$_0EclINS3_4expr9NodeValue8iteratorIS8_EEEEbT_"(ptr readonly captures(none) %0) unnamed_addr #3 align 2 personality ptr @__gxx_personality_v0 {
  %2 = alloca %"class.cvc5::internal::NodeTemplate", align 8
  %3 = load ptr, ptr %0, align 8, !tbaa !31, !noalias !379
  store ptr %3, ptr %2, align 8, !tbaa !8
  %4 = load i64, ptr %3, align 8
  %5 = lshr i64 %4, 40
  %6 = trunc nuw nsw i64 %5 to i32
  %7 = and i32 %6, 1048575
  %8 = icmp samesign ult i32 %7, 1048574
  br i1 %8, label %9, label %14, !prof !11

9:                                                ; preds = %1
  %10 = add i64 %4, 1099511627776
  %11 = and i64 %10, 1152920405095219200
  %12 = and i64 %4, -1152920405095219201
  %13 = or disjoint i64 %11, %12
  store i64 %13, ptr %3, align 8
  br label %_ZN4cvc58internal12NodeTemplateILb1EEC2ERKNS1_ILb0EEE.exit

14:                                               ; preds = %1
  %15 = icmp eq i32 %7, 1048574
  br i1 %15, label %16, label %_ZN4cvc58internal12NodeTemplateILb1EEC2ERKNS1_ILb0EEE.exit, !prof !12

16:                                               ; preds = %14
  %17 = or i64 %4, 1152920405095219200
  store i64 %17, ptr %3, align 8
  tail call void @_ZN4cvc58internal4expr9NodeValue20markRefCountMaxedOutEv(ptr noundef nonnull align 8 dereferenceable(24) %3)
  br label %_ZN4cvc58internal12NodeTemplateILb1EEC2ERKNS1_ILb0EEE.exit

_ZN4cvc58internal12NodeTemplateILb1EEC2ERKNS1_ILb0EEE.exit: ; preds = %16, %14, %9
  %18 = invoke noundef zeroext i1 @_ZNK4cvc58internal12NodeTemplateILb1EE7isConstEv(ptr noundef nonnull align 8 dereferenceable(8) %2)
          to label %"_ZZN4cvc58internal6theory4bags9BagsUtils20areChildrenConstantsENS0_12NodeTemplateILb0EEEENK3$_0clENS4_ILb1EEE.exit" unwind label %33

"_ZZN4cvc58internal6theory4bags9BagsUtils20areChildrenConstantsENS0_12NodeTemplateILb0EEEENK3$_0clENS4_ILb1EEE.exit": ; preds = %_ZN4cvc58internal12NodeTemplateILb1EEC2ERKNS1_ILb0EEE.exit
  %19 = load ptr, ptr %2, align 8, !tbaa !8
  %20 = load i64, ptr %19, align 8
  %21 = and i64 %20, 1152920405095219200
  %.not.i.i = icmp eq i64 %21, 1152920405095219200
  br i1 %.not.i.i, label %_ZN4cvc58internal12NodeTemplateILb1EED2Ev.exit, label %22, !prof !12

22:                                               ; preds = %"_ZZN4cvc58internal6theory4bags9BagsUtils20areChildrenConstantsENS0_12NodeTemplateILb0EEEENK3$_0clENS4_ILb1EEE.exit"
  %23 = add i64 %20, 1152920405095219200
  %24 = and i64 %23, 1152920405095219200
  %25 = and i64 %20, -1152920405095219201
  %26 = or disjoint i64 %24, %25
  store i64 %26, ptr %19, align 8
  %27 = icmp eq i64 %24, 0
  br i1 %27, label %28, label %_ZN4cvc58internal12NodeTemplateILb1EED2Ev.exit, !prof !12

28:                                               ; preds = %22
  invoke void @_ZN4cvc58internal4expr9NodeValue15markForDeletionEv(ptr noundef nonnull align 8 dereferenceable(24) %19)
          to label %_ZN4cvc58internal12NodeTemplateILb1EED2Ev.exit unwind label %29

29:                                               ; preds = %28
  %30 = landingpad { ptr, i32 }
          catch ptr null
  %31 = extractvalue { ptr, i32 } %30, 0
  call void @__clang_call_terminate(ptr %31) #24
  unreachable

_ZN4cvc58internal12NodeTemplateILb1EED2Ev.exit:   ; preds = %"_ZZN4cvc58internal6theory4bags9BagsUtils20areChildrenConstantsENS0_12NodeTemplateILb0EEEENK3$_0clENS4_ILb1EEE.exit", %22, %28
  %32 = xor i1 %18, true
  ret i1 %32

33:                                               ; preds = %_ZN4cvc58internal12NodeTemplateILb1EEC2ERKNS1_ILb0EEE.exit
  %34 = landingpad { ptr, i32 }
          cleanup
  call void @_ZN4cvc58internal12NodeTemplateILb1EED2Ev(ptr noundef nonnull align 8 dereferenceable(8) %2) #23
  resume { ptr, i32 } %34
}